; Function Attrs: nounwind uwtable
define ptr @l_Array_anyMUnsafe_any___at___private_Lean_Server_FileWorker_0__Lean_Server_FileWorker_reportSnapshots_handleTasks___spec__1___boxed(ptr noundef %0, ptr noundef %1, ptr noundef %2, ptr noundef %3, ptr noundef %4) local_unnamed_addr #0 {
  %6 = getelementptr i8, ptr %1, i64 8
  %.val16 = load i64, ptr %6, align 8, !tbaa !8
  %7 = ptrtoint ptr %1 to i64
  %8 = and i64 %7, 1
  %.not = icmp eq i64 %8, 0
  br i1 %.not, label %9, label %lean_dec.exit11

9:                                                ; preds = %5
  %10 = load i32, ptr %1, align 4, !tbaa !10
  %11 = icmp sgt i32 %10, 1
  br i1 %11, label %12, label %14, !prof !13

12:                                               ; preds = %9
  %13 = add nsw i32 %10, -1
  store i32 %13, ptr %1, align 4, !tbaa !10
  br label %lean_dec.exit11

14:                                               ; preds = %9
  %.not.i = icmp eq i32 %10, 0
  br i1 %.not.i, label %lean_dec.exit11, label %15

15:                                               ; preds = %14
  tail call void @lean_dec_ref_cold(ptr noundef nonnull %1) #7
  br label %lean_dec.exit11

lean_dec.exit11:                                  ; preds = %15, %14, %12, %5
  %16 = getelementptr i8, ptr %2, i64 8
  %.val = load i64, ptr %16, align 8, !tbaa !8
  %17 = ptrtoint ptr %2 to i64
  %18 = and i64 %17, 1
  %.not17 = icmp eq i64 %18, 0
  br i1 %.not17, label %19, label %lean_dec.exit10

19:                                               ; preds = %lean_dec.exit11
  %20 = load i32, ptr %2, align 4, !tbaa !10
  %21 = icmp sgt i32 %20, 1
  br i1 %21, label %22, label %24, !prof !13

22:                                               ; preds = %19
  %23 = add nsw i32 %20, -1
  store i32 %23, ptr %2, align 4, !tbaa !10
  br label %lean_dec.exit10

24:                                               ; preds = %19
  %.not.i12 = icmp eq i32 %20, 0
  br i1 %.not.i12, label %lean_dec.exit10, label %25

25:                                               ; preds = %24
  tail call void @lean_dec_ref_cold(ptr noundef nonnull %2) #7
  br label %lean_dec.exit10

lean_dec.exit10:                                  ; preds = %25, %24, %22, %lean_dec.exit11
  %26 = tail call ptr @l_Array_anyMUnsafe_any___at___private_Lean_Server_FileWorker_0__Lean_Server_FileWorker_reportSnapshots_handleTasks___spec__1(ptr noundef %0, i64 noundef %.val16, i64 noundef %.val, ptr noundef %3, ptr noundef %4)
  %27 = ptrtoint ptr %0 to i64
  %28 = and i64 %27, 1
  %.not18 = icmp eq i64 %28, 0
  br i1 %.not18, label %29, label %lean_dec.exit

29:                                               ; preds = %lean_dec.exit10
  %30 = load i32, ptr %0, align 4, !tbaa !10
  %31 = icmp sgt i32 %30, 1
  br i1 %31, label %32, label %34, !prof !13

32:                                               ; preds = %29
  %33 = add nsw i32 %30, -1
  store i32 %33, ptr %0, align 4, !tbaa !10
  br label %lean_dec.exit

34:                                               ; preds = %29
  %.not.i14 = icmp eq i32 %30, 0
  br i1 %.not.i14, label %lean_dec.exit, label %35

35:                                               ; preds = %34
  tail call void @lean_dec_ref_cold(ptr noundef nonnull %0) #7
  br label %lean_dec.exit

lean_dec.exit:                                    ; preds = %35, %34, %32, %lean_dec.exit10
  ret ptr %26
}